; Function Attrs: mustprogress uwtable
define hidden void @_ZNK4cvc58internal8rewriter16RewriteProofRule10getMatchesENS0_12NodeTemplateILb1EEEPNS0_4expr11NotifyMatchE(ptr noundef nonnull align 8 dereferenceable(344) %0, ptr noundef readonly captures(none) %1, ptr noundef %2) local_unnamed_addr #3 align 2 personality ptr @__gxx_personality_v0 {
  %4 = alloca %"class.cvc5::internal::NodeTemplate", align 8
  %5 = getelementptr inbounds nuw i8, ptr %0, i64 264
  %6 = load ptr, ptr %1, align 8, !tbaa !40
  store ptr %6, ptr %4, align 8, !tbaa !40
  %7 = load i64, ptr %6, align 8
  %8 = lshr i64 %7, 40
  %9 = trunc nuw nsw i64 %8 to i32
  %10 = and i32 %9, 1048575
  %11 = icmp samesign ult i32 %10, 1048574
  br i1 %11, label %12, label %17, !prof !56

12:                                               ; preds = %3
  %13 = add i64 %7, 1099511627776
  %14 = and i64 %13, 1152920405095219200
  %15 = and i64 %7, -1152920405095219201
  %16 = or disjoint i64 %14, %15
  store i64 %16, ptr %6, align 8
  br label %_ZN4cvc58internal12NodeTemplateILb1EEC2ERKS2_.exit

17:                                               ; preds = %3
  %18 = icmp eq i32 %10, 1048574
  br i1 %18, label %19, label %_ZN4cvc58internal12NodeTemplateILb1EEC2ERKS2_.exit, !prof !51

19:                                               ; preds = %17
  %20 = or i64 %7, 1152920405095219200
  store i64 %20, ptr %6, align 8
  tail call void @_ZN4cvc58internal4expr9NodeValue20markRefCountMaxedOutEv(ptr noundef nonnull align 8 dereferenceable(24) %6)
  br label %_ZN4cvc58internal12NodeTemplateILb1EEC2ERKS2_.exit

_ZN4cvc58internal12NodeTemplateILb1EEC2ERKS2_.exit: ; preds = %12, %17, %19
  %21 = invoke noundef zeroext i1 @_ZNK4cvc58internal4expr13NaryMatchTrie10getMatchesENS0_12NodeTemplateILb1EEEPNS1_11NotifyMatchE(ptr noundef nonnull align 8 dereferenceable(80) %5, ptr noundef nonnull %4, ptr noundef %2)
          to label %22 unwind label %36

22:                                               ; preds = %_ZN4cvc58internal12NodeTemplateILb1EEC2ERKS2_.exit
  %23 = load ptr, ptr %4, align 8, !tbaa !40
  %24 = load i64, ptr %23, align 8
  %25 = and i64 %24, 1152920405095219200
  %.not.i.i = icmp eq i64 %25, 1152920405095219200
  br i1 %.not.i.i, label %_ZN4cvc58internal12NodeTemplateILb1EED2Ev.exit, label %26, !prof !51

26:                                               ; preds = %22
  %27 = add i64 %24, 1152920405095219200
  %28 = and i64 %27, 1152920405095219200
  %29 = and i64 %24, -1152920405095219201
  %30 = or disjoint i64 %28, %29
  store i64 %30, ptr %23, align 8
  %31 = icmp eq i64 %28, 0
  br i1 %31, label %32, label %_ZN4cvc58internal12NodeTemplateILb1EED2Ev.exit, !prof !51

32:                                               ; preds = %26
  invoke void @_ZN4cvc58internal4expr9NodeValue15markForDeletionEv(ptr noundef nonnull align 8 dereferenceable(24) %23)
          to label %_ZN4cvc58internal12NodeTemplateILb1EED2Ev.exit unwind label %33

33:                                               ; preds = %32
  %34 = landingpad { ptr, i32 }
          catch ptr null
  %35 = extractvalue { ptr, i32 } %34, 0
  call void @__clang_call_terminate(ptr %35) #26
  unreachable

_ZN4cvc58internal12NodeTemplateILb1EED2Ev.exit:   ; preds = %22, %26, %32
  ret void

36:                                               ; preds = %_ZN4cvc58internal12NodeTemplateILb1EEC2ERKS2_.exit
  %37 = landingpad { ptr, i32 }
          cleanup
  call void @_ZN4cvc58internal12NodeTemplateILb1EED2Ev(ptr noundef nonnull align 8 dereferenceable(8) %4) #24
  resume { ptr, i32 } %37
}